; Function Attrs: mustprogress nofree norecurse nosync nounwind willreturn memory(read, inaccessiblemem: none) uwtable
define internal noundef ptr @_ZNK9grpc_core12_GLOBAL__N_18RingHash16RingHashEndpoint6Helper13parent_helperEv(ptr nocapture noundef nonnull readonly align 8 dereferenceable(16) %this) unnamed_addr #18 align 2 {
entry:
  %endpoint_ = getelementptr inbounds i8, ptr %this, i64 8
  %endpoint_.val = load ptr, ptr %endpoint_, align 8
  %ring_hash_ = getelementptr inbounds i8, ptr %endpoint_.val, i64 16
  %ring_hash_.val = load ptr, ptr %ring_hash_, align 8
  %channel_control_helper_.i = getelementptr inbounds i8, ptr %ring_hash_.val, i64 40
  %0 = load ptr, ptr %channel_control_helper_.i, align 8
  ret ptr %0
}